; Function Attrs: nounwind sspstrong uwtable
define internal noundef ptr @quorum_aio_get(ptr noundef %bs, ptr noundef %qiov, i64 noundef %offset, i64 noundef %bytes, i32 noundef %flags) #0 {
entry:
  %opaque = getelementptr inbounds nuw i8, ptr %bs, i64 24
  %0 = load ptr, ptr %opaque, align 8
  %call = tail call noalias dereferenceable_or_null(104) ptr @g_malloc_n(i64 noundef 1, i64 noundef 104) #18
  %call2 = tail call ptr @qemu_coroutine_self() #17
  store ptr %bs, ptr %call, align 8
  %.compoundliteral.sroa.2.0..sroa_idx = getelementptr inbounds nuw i8, ptr %call, i64 8
  store ptr %call2, ptr %.compoundliteral.sroa.2.0..sroa_idx, align 8
  %.compoundliteral.sroa.3.0..sroa_idx = getelementptr inbounds nuw i8, ptr %call, i64 16
  store i64 %offset, ptr %.compoundliteral.sroa.3.0..sroa_idx, align 8
  %.compoundliteral.sroa.4.0..sroa_idx = getelementptr inbounds nuw i8, ptr %call, i64 24
  store i64 %bytes, ptr %.compoundliteral.sroa.4.0..sroa_idx, align 8
  %.compoundliteral.sroa.5.0..sroa_idx = getelementptr inbounds nuw i8, ptr %call, i64 32
  store i32 %flags, ptr %.compoundliteral.sroa.5.0..sroa_idx, align 8
  %.compoundliteral.sroa.61.0..sroa_idx = getelementptr inbounds nuw i8, ptr %call, i64 40
  store ptr %qiov, ptr %.compoundliteral.sroa.61.0..sroa_idx, align 8
  %.compoundliteral.sroa.7.0..sroa_idx = getelementptr inbounds nuw i8, ptr %call, i64 48
  %.compoundliteral.sroa.112.0..sroa_idx = getelementptr inbounds nuw i8, ptr %call, i64 72
  store ptr null, ptr %.compoundliteral.sroa.112.0..sroa_idx, align 8
  %.compoundliteral.sroa.12.0..sroa_idx = getelementptr inbounds nuw i8, ptr %call, i64 80
  %1 = getelementptr inbounds nuw i8, ptr %call, i64 56
  tail call void @llvm.memset.p0.i64(ptr noundef nonnull align 8 dereferenceable(12) %1, i8 0, i64 12, i1 false)
  store ptr @quorum_sha256_compare, ptr %.compoundliteral.sroa.12.0..sroa_idx, align 8
  %.compoundliteral.sroa.13.0..sroa_idx = getelementptr inbounds nuw i8, ptr %call, i64 88
  store i8 0, ptr %.compoundliteral.sroa.13.0..sroa_idx, align 8
  %.compoundliteral.sroa.143.0..sroa_idx = getelementptr inbounds nuw i8, ptr %call, i64 92
  store i32 0, ptr %.compoundliteral.sroa.143.0..sroa_idx, align 4
  %.compoundliteral.sroa.15.0..sroa_idx = getelementptr inbounds nuw i8, ptr %call, i64 96
  store i32 0, ptr %.compoundliteral.sroa.15.0..sroa_idx, align 8
  %num_children = getelementptr inbounds nuw i8, ptr %0, i64 8
  %2 = load i32, ptr %num_children, align 8
  %conv = sext i32 %2 to i64
  %call7 = tail call noalias ptr @g_malloc0_n(i64 noundef %conv, i64 noundef 72) #18
  store ptr %call7, ptr %.compoundliteral.sroa.7.0..sroa_idx, align 8
  %3 = load i32, ptr %num_children, align 8
  %cmp16 = icmp sgt i32 %3, 0
  br i1 %cmp16, label %for.body, label %for.end

for.body:                                         ; preds = %entry, %for.body
  %indvars.iv = phi i64 [ %indvars.iv.next, %for.body ], [ 0, %entry ]
  %4 = load ptr, ptr %.compoundliteral.sroa.7.0..sroa_idx, align 8
  %buf = getelementptr %struct.QuorumChildRequest, ptr %4, i64 %indvars.iv, i32 2
  store ptr null, ptr %buf, align 8
  %5 = load ptr, ptr %.compoundliteral.sroa.7.0..sroa_idx, align 8
  %ret = getelementptr %struct.QuorumChildRequest, ptr %5, i64 %indvars.iv, i32 3
  store i32 0, ptr %ret, align 8
  %6 = load ptr, ptr %.compoundliteral.sroa.7.0..sroa_idx, align 8
  %parent = getelementptr %struct.QuorumChildRequest, ptr %6, i64 %indvars.iv, i32 4
  store ptr %call, ptr %parent, align 8
  %indvars.iv.next = add nuw nsw i64 %indvars.iv, 1
  %7 = load i32, ptr %num_children, align 8
  %8 = sext i32 %7 to i64
  %cmp = icmp slt i64 %indvars.iv.next, %8
  br i1 %cmp, label %for.body, label %for.end, !llvm.loop !13

for.end:                                          ; preds = %for.body, %entry
  ret ptr %call
}